; Function Attrs: nounwind uwtable
define ptr @l_Lean_ParseImports_moduleIdent___lambda__1___boxed(ptr noundef %0, ptr noundef %1, ptr noundef %2) #0 {
  %4 = getelementptr inbounds nuw i8, ptr %2, i64 34
  %5 = load i8, ptr %4, align 1, !tbaa !15
  %6 = getelementptr inbounds nuw i8, ptr %2, i64 33
  %7 = load i8, ptr %6, align 1, !tbaa !15
  tail call void @lean_inc_heartbeat() #6
  %8 = tail call noalias ptr @mi_malloc_small(i64 noundef 24) #6
  %9 = icmp eq ptr %8, null
  br i1 %9, label %10, label %l_Lean_ParseImports_moduleIdent___lambda__1.exit

10:                                               ; preds = %3
  tail call void @lean_internal_panic_out_of_memory() #7
  unreachable

l_Lean_ParseImports_moduleIdent___lambda__1.exit: ; preds = %3
  %11 = getelementptr inbounds nuw i8, ptr %8, i64 4
  %12 = getelementptr inbounds nuw i8, ptr %8, i64 16
  store i64 0, ptr %12, align 8, !tbaa !16
  store i32 1, ptr %8, align 4, !tbaa !4
  store i32 65560, ptr %11, align 4
  %13 = getelementptr inbounds nuw i8, ptr %8, i64 8
  store ptr %0, ptr %13, align 8, !tbaa !10
  store i8 %5, ptr %12, align 1, !tbaa !15
  %14 = getelementptr inbounds nuw i8, ptr %8, i64 17
  store i8 %7, ptr %14, align 1, !tbaa !15
  %15 = tail call ptr @l_Lean_ParseImports_State_pushImport(ptr noundef nonnull %8, ptr noundef nonnull %2)
  %16 = tail call ptr @l_Lean_ParseImports_whitespace(ptr noundef %1, ptr noundef %15)
  %17 = ptrtoint ptr %1 to i64
  %18 = and i64 %17, 1
  %.not = icmp eq i64 %18, 0
  br i1 %.not, label %19, label %lean_dec.exit

19:                                               ; preds = %l_Lean_ParseImports_moduleIdent___lambda__1.exit
  %20 = load i32, ptr %1, align 4, !tbaa !4
  %21 = icmp sgt i32 %20, 1
  br i1 %21, label %22, label %24, !prof !9

22:                                               ; preds = %19
  %23 = add nsw i32 %20, -1
  store i32 %23, ptr %1, align 4, !tbaa !4
  br label %lean_dec.exit

24:                                               ; preds = %19
  %.not.i = icmp eq i32 %20, 0
  br i1 %.not.i, label %lean_dec.exit, label %25

25:                                               ; preds = %24
  tail call void @lean_dec_ref_cold(ptr noundef nonnull %1) #6
  br label %lean_dec.exit

lean_dec.exit:                                    ; preds = %25, %24, %22, %l_Lean_ParseImports_moduleIdent___lambda__1.exit
  ret ptr %16
}